; ModuleID = '36/577.c'
source_filename = "36/577.c"
target datalayout = "e-m:e-p270:32:32-p271:32:32-p272:64:64-i64:64-f80:128-n8:16:32:64-S128"
target triple = "x86_64-pc-linux-gnu"

@.str = private unnamed_addr constant [3 x i8] c"NO\00", align 1
@.str.1 = private unnamed_addr constant [4 x i8] c"YES\00", align 1
@.str.2 = private unnamed_addr constant [5 x i8] c"%s%s\00", align 1

; Function Attrs: noinline nounwind uwtable
define dso_local void @rearrange(i8* %0) #0 {
  %2 = alloca i8*, align 8
  %3 = alloca i32, align 4
  %4 = alloca i32, align 4
  %5 = alloca i32, align 4
  %6 = alloca i8, align 1
  store i8* %0, i8** %2, align 8
  %7 = load i8*, i8** %2, align 8
  %8 = call i64 @strlen(i8* %7) #3
  %9 = trunc i64 %8 to i32
  store i32 %9, i32* %5, align 4
  store i32 0, i32* %3, align 4
  br label %10

10:                                               ; preds = %60, %1
  %11 = load i32, i32* %3, align 4
  %12 = load i32, i32* %5, align 4
  %13 = icmp slt i32 %11, %12
  br i1 %13, label %14, label %63

14:                                               ; preds = %10
  %15 = load i32, i32* %3, align 4
  %16 = add nsw i32 %15, 1
  store i32 %16, i32* %4, align 4
  br label %17

17:                                               ; preds = %56, %14
  %18 = load i32, i32* %4, align 4
  %19 = load i32, i32* %5, align 4
  %20 = icmp slt i32 %18, %19
  br i1 %20, label %21, label %59

21:                                               ; preds = %17
  %22 = load i8*, i8** %2, align 8
  %23 = load i32, i32* %3, align 4
  %24 = sext i32 %23 to i64
  %25 = getelementptr inbounds i8, i8* %22, i64 %24
  %26 = load i8, i8* %25, align 1
  %27 = sext i8 %26 to i32
  %28 = load i8*, i8** %2, align 8
  %29 = load i32, i32* %4, align 4
  %30 = sext i32 %29 to i64
  %31 = getelementptr inbounds i8, i8* %28, i64 %30
  %32 = load i8, i8* %31, align 1
  %33 = sext i8 %32 to i32
  %34 = icmp sgt i32 %27, %33
  br i1 %34, label %35, label %55

35:                                               ; preds = %21
  %36 = load i8*, i8** %2, align 8
  %37 = load i32, i32* %3, align 4
  %38 = sext i32 %37 to i64
  %39 = getelementptr inbounds i8, i8* %36, i64 %38
  %40 = load i8, i8* %39, align 1
  store i8 %40, i8* %6, align 1
  %41 = load i8*, i8** %2, align 8
  %42 = load i32, i32* %4, align 4
  %43 = sext i32 %42 to i64
  %44 = getelementptr inbounds i8, i8* %41, i64 %43
  %45 = load i8, i8* %44, align 1
  %46 = load i8*, i8** %2, align 8
  %47 = load i32, i32* %3, align 4
  %48 = sext i32 %47 to i64
  %49 = getelementptr inbounds i8, i8* %46, i64 %48
  store i8 %45, i8* %49, align 1
  %50 = load i8, i8* %6, align 1
  %51 = load i8*, i8** %2, align 8
  %52 = load i32, i32* %4, align 4
  %53 = sext i32 %52 to i64
  %54 = getelementptr inbounds i8, i8* %51, i64 %53
  store i8 %50, i8* %54, align 1
  br label %55

55:                                               ; preds = %35, %21
  br label %56

56:                                               ; preds = %55
  %57 = load i32, i32* %4, align 4
  %58 = add nsw i32 %57, 1
  store i32 %58, i32* %4, align 4
  br label %17

59:                                               ; preds = %17
  br label %60

60:                                               ; preds = %59
  %61 = load i32, i32* %3, align 4
  %62 = add nsw i32 %61, 1
  store i32 %62, i32* %3, align 4
  br label %10

63:                                               ; preds = %10
  ret void
}

; Function Attrs: nounwind readonly
declare dso_local i64 @strlen(i8*) #1

; Function Attrs: noinline nounwind uwtable
define dso_local void @compare(i8* %0, i8* %1) #0 {
  %3 = alloca i8*, align 8
  %4 = alloca i8*, align 8
  %5 = alloca i32, align 4
  %6 = alloca i32, align 4
  %7 = alloca i32, align 4
  %8 = alloca i32, align 4
  %9 = alloca i32, align 4
  store i8* %0, i8** %3, align 8
  store i8* %1, i8** %4, align 8
  store i32 0, i32* %7, align 4
  %10 = load i8*, i8** %3, align 8
  %11 = call i64 @strlen(i8* %10) #3
  %12 = trunc i64 %11 to i32
  store i32 %12, i32* %8, align 4
  %13 = load i8*, i8** %4, align 8
  %14 = call i64 @strlen(i8* %13) #3
  %15 = trunc i64 %14 to i32
  store i32 %15, i32* %9, align 4
  %16 = load i32, i32* %8, align 4
  %17 = load i32, i32* %9, align 4
  %18 = icmp ne i32 %16, %17
  br i1 %18, label %19, label %21

19:                                               ; preds = %2
  %20 = call i32 (i8*, ...) @printf(i8* getelementptr inbounds ([3 x i8], [3 x i8]* @.str, i64 0, i64 0))
  br label %61

21:                                               ; preds = %2
  %22 = load i32, i32* %8, align 4
  %23 = load i32, i32* %9, align 4
  %24 = icmp eq i32 %22, %23
  br i1 %24, label %25, label %60

25:                                               ; preds = %21
  store i32 0, i32* %5, align 4
  br label %26

26:                                               ; preds = %48, %25
  %27 = load i32, i32* %5, align 4
  %28 = load i32, i32* %8, align 4
  %29 = icmp slt i32 %27, %28
  br i1 %29, label %30, label %51

30:                                               ; preds = %26
  %31 = load i8*, i8** %3, align 8
  %32 = load i32, i32* %5, align 4
  %33 = sext i32 %32 to i64
  %34 = getelementptr inbounds i8, i8* %31, i64 %33
  %35 = load i8, i8* %34, align 1
  %36 = sext i8 %35 to i32
  %37 = load i8*, i8** %4, align 8
  %38 = load i32, i32* %5, align 4
  %39 = sext i32 %38 to i64
  %40 = getelementptr inbounds i8, i8* %37, i64 %39
  %41 = load i8, i8* %40, align 1
  %42 = sext i8 %41 to i32
  %43 = icmp eq i32 %36, %42
  br i1 %43, label %44, label %47

44:                                               ; preds = %30
  %45 = load i32, i32* %7, align 4
  %46 = add nsw i32 %45, 1
  store i32 %46, i32* %7, align 4
  br label %47

47:                                               ; preds = %44, %30
  br label %48

48:                                               ; preds = %47
  %49 = load i32, i32* %5, align 4
  %50 = add nsw i32 %49, 1
  store i32 %50, i32* %5, align 4
  br label %26

51:                                               ; preds = %26
  %52 = load i32, i32* %7, align 4
  %53 = load i32, i32* %8, align 4
  %54 = icmp eq i32 %52, %53
  br i1 %54, label %55, label %57

55:                                               ; preds = %51
  %56 = call i32 (i8*, ...) @printf(i8* getelementptr inbounds ([4 x i8], [4 x i8]* @.str.1, i64 0, i64 0))
  br label %59

57:                                               ; preds = %51
  %58 = call i32 (i8*, ...) @printf(i8* getelementptr inbounds ([3 x i8], [3 x i8]* @.str, i64 0, i64 0))
  br label %59

59:                                               ; preds = %57, %55
  br label %60

60:                                               ; preds = %59, %21
  br label %61

61:                                               ; preds = %60, %19
  ret void
}

declare dso_local i32 @printf(i8*, ...) #2

; Function Attrs: noinline nounwind uwtable
define dso_local void @main() #0 {
  %1 = alloca [100 x i8], align 16
  %2 = alloca [100 x i8], align 16
  %3 = getelementptr inbounds [100 x i8], [100 x i8]* %1, i64 0, i64 0
  %4 = getelementptr inbounds [100 x i8], [100 x i8]* %2, i64 0, i64 0
  %5 = call i32 (i8*, ...) @__isoc99_scanf(i8* getelementptr inbounds ([5 x i8], [5 x i8]* @.str.2, i64 0, i64 0), i8* %3, i8* %4)
  %6 = getelementptr inbounds [100 x i8], [100 x i8]* %1, i64 0, i64 0
  call void @rearrange(i8* %6)
  %7 = getelementptr inbounds [100 x i8], [100 x i8]* %2, i64 0, i64 0
  call void @rearrange(i8* %7)
  %8 = getelementptr inbounds [100 x i8], [100 x i8]* %1, i64 0, i64 0
  %9 = getelementptr inbounds [100 x i8], [100 x i8]* %2, i64 0, i64 0
  call void @compare(i8* %8, i8* %9)
  ret void
}

declare dso_local i32 @__isoc99_scanf(i8*, ...) #2


!llvm.module.flags = !{!0}
!llvm.ident = !{!1}

!0 = !{i32 1, !"wchar_size", i32 4}
!1 = !{!"clang version 10.0.0-4ubuntu1 "}
